target datalayout = "e-m:e-p270:32:32-p271:32:32-p272:64:64-i64:64-i128:128-f80:128-n8:16:32:64-S128"
target triple = "x86_64-pc-linux-gnu"

%struct.PS_UnicodesRec_ = type { %struct.FT_CMapRec_, i32, ptr }
%struct.FT_CMapRec_ = type { %struct.FT_CharMapRec_, ptr }
%struct.FT_CharMapRec_ = type { ptr, i32, i16, i16 }
%struct.PS_UniMap_ = type { i32, i32 }

; Function Attrs: nounwind uwtable
define internal i32 @ps_unicodes_char_next(ptr noundef %0, ptr noundef %1) #0 {
  %3 = alloca i32, align 4
  %4 = alloca ptr, align 8
  %5 = alloca ptr, align 8
  %6 = alloca i32, align 4
  %7 = alloca i32, align 4
  %8 = alloca i32, align 4
  %9 = alloca i32, align 4
  %10 = alloca i32, align 4
  %11 = alloca ptr, align 8
  %12 = alloca i32, align 4
  %13 = alloca i32, align 4
  store ptr %0, ptr %4, align 8, !tbaa !19
  store ptr %1, ptr %5, align 8, !tbaa !38
  call void @llvm.lifetime.start.p0(i64 4, ptr %6) #5
  store i32 0, ptr %6, align 4, !tbaa !11
  call void @llvm.lifetime.start.p0(i64 4, ptr %7) #5
  %14 = load ptr, ptr %5, align 8, !tbaa !38
  %15 = load i32, ptr %14, align 4, !tbaa !11
  %16 = add i32 %15, 1
  store i32 %16, ptr %7, align 4, !tbaa !11
  call void @llvm.lifetime.start.p0(i64 4, ptr %8) #5
  store i32 0, ptr %8, align 4, !tbaa !11
  call void @llvm.lifetime.start.p0(i64 4, ptr %9) #5
  %17 = load ptr, ptr %4, align 8, !tbaa !19
  %18 = getelementptr inbounds nuw %struct.PS_UnicodesRec_, ptr %17, i32 0, i32 1
  %19 = load i32, ptr %18, align 8, !tbaa !22
  store i32 %19, ptr %9, align 4, !tbaa !11
  call void @llvm.lifetime.start.p0(i64 4, ptr %10) #5
  %20 = load i32, ptr %8, align 4, !tbaa !11
  %21 = load i32, ptr %9, align 4, !tbaa !11
  %22 = load i32, ptr %8, align 4, !tbaa !11
  %23 = sub i32 %21, %22
  %24 = lshr i32 %23, 1
  %25 = add i32 %20, %24
  store i32 %25, ptr %10, align 4, !tbaa !11
  call void @llvm.lifetime.start.p0(i64 8, ptr %11) #5
  call void @llvm.lifetime.start.p0(i64 4, ptr %12) #5
  br label %26

26:                                               ; preds = %89, %2
  %27 = load i32, ptr %8, align 4, !tbaa !11
  %28 = load i32, ptr %9, align 4, !tbaa !11
  %29 = icmp ult i32 %27, %28
  br i1 %29, label %30, label %90

30:                                               ; preds = %26
  %31 = load ptr, ptr %4, align 8, !tbaa !19
  %32 = getelementptr inbounds nuw %struct.PS_UnicodesRec_, ptr %31, i32 0, i32 2
  %33 = load ptr, ptr %32, align 8, !tbaa !30
  %34 = load i32, ptr %10, align 4, !tbaa !11
  %35 = zext i32 %34 to i64
  %36 = getelementptr inbounds nuw %struct.PS_UniMap_, ptr %33, i64 %35
  store ptr %36, ptr %11, align 8, !tbaa !31
  %37 = load ptr, ptr %11, align 8, !tbaa !31
  %38 = getelementptr inbounds nuw %struct.PS_UniMap_, ptr %37, i32 0, i32 0
  %39 = load i32, ptr %38, align 4, !tbaa !32
  %40 = load i32, ptr %7, align 4, !tbaa !11
  %41 = icmp eq i32 %39, %40
  br i1 %41, label %42, label %46

42:                                               ; preds = %30
  %43 = load ptr, ptr %11, align 8, !tbaa !31
  %44 = getelementptr inbounds nuw %struct.PS_UniMap_, ptr %43, i32 0, i32 1
  %45 = load i32, ptr %44, align 4, !tbaa !34
  store i32 %45, ptr %6, align 4, !tbaa !11
  store i32 4, ptr %13, align 4
  br label %117

46:                                               ; preds = %30
  %47 = load ptr, ptr %11, align 8, !tbaa !31
  %48 = getelementptr inbounds nuw %struct.PS_UniMap_, ptr %47, i32 0, i32 0
  %49 = load i32, ptr %48, align 4, !tbaa !32
  %50 = zext i32 %49 to i64
  %51 = and i64 %50, -2147483649
  %52 = trunc i64 %51 to i32
  store i32 %52, ptr %12, align 4, !tbaa !11
  %53 = load i32, ptr %12, align 4, !tbaa !11
  %54 = load i32, ptr %7, align 4, !tbaa !11
  %55 = icmp eq i32 %53, %54
  br i1 %55, label %56, label %60

56:                                               ; preds = %46
  %57 = load ptr, ptr %11, align 8, !tbaa !31
  %58 = getelementptr inbounds nuw %struct.PS_UniMap_, ptr %57, i32 0, i32 1
  %59 = load i32, ptr %58, align 4, !tbaa !34
  store i32 %59, ptr %6, align 4, !tbaa !11
  br label %60

60:                                               ; preds = %56, %46
  %61 = load i32, ptr %12, align 4, !tbaa !11
  %62 = load i32, ptr %7, align 4, !tbaa !11
  %63 = icmp ult i32 %61, %62
  br i1 %63, label %64, label %67

64:                                               ; preds = %60
  %65 = load i32, ptr %10, align 4, !tbaa !11
  %66 = add i32 %65, 1
  store i32 %66, ptr %8, align 4, !tbaa !11
  br label %69

67:                                               ; preds = %60
  %68 = load i32, ptr %10, align 4, !tbaa !11
  store i32 %68, ptr %9, align 4, !tbaa !11
  br label %69

69:                                               ; preds = %67, %64
  %70 = load i32, ptr %7, align 4, !tbaa !11
  %71 = load i32, ptr %12, align 4, !tbaa !11
  %72 = sub i32 %70, %71
  %73 = load i32, ptr %10, align 4, !tbaa !11
  %74 = add i32 %73, %72
  store i32 %74, ptr %10, align 4, !tbaa !11
  %75 = load i32, ptr %10, align 4, !tbaa !11
  %76 = load i32, ptr %9, align 4, !tbaa !11
  %77 = icmp uge i32 %75, %76
  br i1 %77, label %82, label %78

78:                                               ; preds = %69
  %79 = load i32, ptr %10, align 4, !tbaa !11
  %80 = load i32, ptr %8, align 4, !tbaa !11
  %81 = icmp ult i32 %79, %80
  br i1 %81, label %82, label %89

82:                                               ; preds = %78, %69
  %83 = load i32, ptr %8, align 4, !tbaa !11
  %84 = load i32, ptr %9, align 4, !tbaa !11
  %85 = load i32, ptr %8, align 4, !tbaa !11
  %86 = sub i32 %84, %85
  %87 = udiv i32 %86, 2
  %88 = add i32 %83, %87
  store i32 %88, ptr %10, align 4, !tbaa !11
  br label %89

89:                                               ; preds = %82, %78
  br label %26, !llvm.loop !40

90:                                               ; preds = %26
  %91 = load i32, ptr %6, align 4, !tbaa !11
  %92 = icmp ne i32 %91, 0
  br i1 %92, label %93, label %94

93:                                               ; preds = %90
  store i32 4, ptr %13, align 4
  br label %117

94:                                               ; preds = %90
  store i32 0, ptr %7, align 4, !tbaa !11
  %95 = load i32, ptr %8, align 4, !tbaa !11
  %96 = load ptr, ptr %4, align 8, !tbaa !19
  %97 = getelementptr inbounds nuw %struct.PS_UnicodesRec_, ptr %96, i32 0, i32 1
  %98 = load i32, ptr %97, align 8, !tbaa !22
  %99 = icmp ult i32 %95, %98
  br i1 %99, label %100, label %116

100:                                              ; preds = %94
  %101 = load ptr, ptr %4, align 8, !tbaa !19
  %102 = getelementptr inbounds nuw %struct.PS_UnicodesRec_, ptr %101, i32 0, i32 2
  %103 = load ptr, ptr %102, align 8, !tbaa !30
  %104 = load i32, ptr %8, align 4, !tbaa !11
  %105 = zext i32 %104 to i64
  %106 = getelementptr inbounds nuw %struct.PS_UniMap_, ptr %103, i64 %105
  store ptr %106, ptr %11, align 8, !tbaa !31
  %107 = load ptr, ptr %11, align 8, !tbaa !31
  %108 = getelementptr inbounds nuw %struct.PS_UniMap_, ptr %107, i32 0, i32 1
  %109 = load i32, ptr %108, align 4, !tbaa !34
  store i32 %109, ptr %6, align 4, !tbaa !11
  %110 = load ptr, ptr %11, align 8, !tbaa !31
  %111 = getelementptr inbounds nuw %struct.PS_UniMap_, ptr %110, i32 0, i32 0
  %112 = load i32, ptr %111, align 4, !tbaa !32
  %113 = zext i32 %112 to i64
  %114 = and i64 %113, -2147483649
  %115 = trunc i64 %114 to i32
  store i32 %115, ptr %7, align 4, !tbaa !11
  br label %116

116:                                              ; preds = %100, %94
  store i32 0, ptr %13, align 4
  br label %117

117:                                              ; preds = %93, %42, %116
  call void @llvm.lifetime.end.p0(i64 4, ptr %12) #5
  call void @llvm.lifetime.end.p0(i64 8, ptr %11) #5
  call void @llvm.lifetime.end.p0(i64 4, ptr %10) #5
  call void @llvm.lifetime.end.p0(i64 4, ptr %9) #5
  call void @llvm.lifetime.end.p0(i64 4, ptr %8) #5
  %118 = load i32, ptr %13, align 4
  switch i32 %118, label %124 [
    i32 0, label %119
    i32 4, label %120
  ]

119:                                              ; preds = %117
  br label %120

120:                                              ; preds = %119, %117
  %121 = load i32, ptr %7, align 4, !tbaa !11
  %122 = load ptr, ptr %5, align 8, !tbaa !38
  store i32 %121, ptr %122, align 4, !tbaa !11
  %123 = load i32, ptr %6, align 4, !tbaa !11
  store i32 %123, ptr %3, align 4
  store i32 1, ptr %13, align 4
  br label %124

124:                                              ; preds = %120, %117
  call void @llvm.lifetime.end.p0(i64 4, ptr %7) #5
  call void @llvm.lifetime.end.p0(i64 4, ptr %6) #5
  %125 = load i32, ptr %3, align 4
  ret i32 %125
}