; Function Attrs: nofree norecurse nosync nounwind memory(read, argmem: readwrite, inaccessiblemem: none) uwtable
define internal i32 @ps_unicodes_char_next(ptr noundef readonly captures(none) %0, ptr noundef captures(none) %1) #3 {
  %3 = load i32, ptr %1, align 4, !tbaa !22
  %4 = add i32 %3, 1
  %5 = getelementptr inbounds nuw i8, ptr %0, i64 24
  %6 = load i32, ptr %5, align 8, !tbaa !11
  %.not63 = icmp eq i32 %6, 0
  br i1 %.not63, label %._crit_edge.thread, label %.lr.ph

.lr.ph:                                           ; preds = %2
  %7 = lshr i32 %6, 1
  %8 = getelementptr inbounds nuw i8, ptr %0, i64 32
  %9 = load ptr, ptr %8, align 8, !tbaa !21
  br label %10

10:                                               ; preds = %.lr.ph, %24
  %.04261 = phi i32 [ %7, %.lr.ph ], [ %.1, %24 ]
  %.04360 = phi i32 [ %6, %.lr.ph ], [ %.144, %24 ]
  %.04559 = phi i32 [ 0, %.lr.ph ], [ %.146, %24 ]
  %.04958 = phi i32 [ 0, %.lr.ph ], [ %.2, %24 ]
  %11 = zext i32 %.04261 to i64
  %12 = getelementptr inbounds nuw %struct.PS_UniMap_, ptr %9, i64 %11
  %13 = load i32, ptr %12, align 4, !tbaa !25
  %14 = icmp eq i32 %13, %4
  br i1 %14, label %15, label %18

15:                                               ; preds = %10
  %16 = getelementptr inbounds nuw i8, ptr %12, i64 4
  %17 = load i32, ptr %16, align 4, !tbaa !27
  br label %44

18:                                               ; preds = %10
  %19 = and i32 %13, 2147483647
  %20 = icmp eq i32 %19, %4
  br i1 %20, label %21, label %24

21:                                               ; preds = %18
  %22 = getelementptr inbounds nuw i8, ptr %12, i64 4
  %23 = load i32, ptr %22, align 4, !tbaa !27
  br label %24

24:                                               ; preds = %21, %18
  %.2 = phi i32 [ %23, %21 ], [ %.04958, %18 ]
  %25 = icmp ult i32 %19, %4
  %26 = add i32 %.04261, 1
  %.146 = select i1 %25, i32 %26, i32 %.04559
  %.144 = select i1 %25, i32 %.04360, i32 %.04261
  %27 = sub i32 %4, %19
  %28 = add i32 %27, %.04261
  %.not55 = icmp uge i32 %28, %.144
  %29 = icmp ult i32 %28, %.146
  %or.cond = or i1 %.not55, %29
  %30 = sub i32 %.144, %.146
  %31 = lshr i32 %30, 1
  %32 = add i32 %31, %.146
  %.1 = select i1 %or.cond, i32 %32, i32 %28
  %33 = icmp ult i32 %.146, %.144
  br i1 %33, label %10, label %._crit_edge, !llvm.loop !30

._crit_edge:                                      ; preds = %24
  %.not = icmp eq i32 %.2, 0
  br i1 %.not, label %._crit_edge.thread, label %44

._crit_edge.thread:                               ; preds = %2, %._crit_edge
  %.045.lcssa68 = phi i32 [ %.146, %._crit_edge ], [ 0, %2 ]
  %34 = icmp ult i32 %.045.lcssa68, %6
  br i1 %34, label %35, label %44

35:                                               ; preds = %._crit_edge.thread
  %36 = getelementptr inbounds nuw i8, ptr %0, i64 32
  %37 = load ptr, ptr %36, align 8, !tbaa !21
  %38 = zext i32 %.045.lcssa68 to i64
  %39 = getelementptr inbounds nuw %struct.PS_UniMap_, ptr %37, i64 %38
  %40 = getelementptr inbounds nuw i8, ptr %39, i64 4
  %41 = load i32, ptr %40, align 4, !tbaa !27
  %42 = load i32, ptr %39, align 4, !tbaa !25
  %43 = and i32 %42, 2147483647
  br label %44

44:                                               ; preds = %15, %._crit_edge, %35, %._crit_edge.thread
  %.150 = phi i32 [ %17, %15 ], [ %.2, %._crit_edge ], [ %41, %35 ], [ 0, %._crit_edge.thread ]
  %.047 = phi i32 [ %4, %15 ], [ %4, %._crit_edge ], [ %43, %35 ], [ 0, %._crit_edge.thread ]
  store i32 %.047, ptr %1, align 4, !tbaa !22
  ret i32 %.150
}